target datalayout = "e-m:e-p270:32:32-p271:32:32-p272:64:64-i64:64-i128:128-f80:128-n8:16:32:64-S128"
target triple = "x86_64-pc-linux-gnu"

%struct.AVCodecContext = type { ptr, i32, i32, ptr, i32, i32, ptr, ptr, ptr, i64, i32, i32, ptr, i32, %struct.AVRational, %struct.AVRational, %struct.AVRational, i32, i32, i32, i32, i32, %struct.AVRational, i32, i32, i32, i32, i32, i32, i32, i32, i32, i32, i32, ptr, ptr, i32, float, float, float, float, float, float, float, float, float, i32, i32, i32, i32, i32, i32, i32, i32, i32, i32, i32, i32, ptr, ptr, ptr, i32, i32, i32, i32, i32, i32, i32, i32, i32, i32, %struct.AVChannelLayout, i32, i32, i32, i32, i32, i32, i32, i32, ptr, i32, i32, i32, float, float, i32, i32, i32, i32, i32, ptr, i64, i64, float, float, i32, i32, ptr, ptr, i32, i32, i32, i32, i32, ptr, ptr, ptr, ptr, i32, i32, [8 x i64], i32, i32, i32, i32, i32, i32, i32, ptr, ptr, i32, i32, i32, i32, i32, i32, i32, i32, i32, i32, ptr, ptr, i32, i32, ptr, ptr, ptr, ptr, i32, i32, i64, i32, i32, i64, ptr, i64, ptr, i32, ptr, i32 }
%struct.AVRational = type { i32, i32 }
%struct.AVChannelLayout = type { i32, i32, %union.anon.0, ptr }
%union.anon.0 = type { i64 }
%struct.LOCOContext = type { ptr, i32, i32 }

@.str.2 = private unnamed_addr constant [44 x i8] c"Extradata size must be >= 12 instead of %i\0A\00", align 1
@.str.3 = private unnamed_addr constant [22 x i8] c"LOCO codec version %i\00", align 1
@.str.4 = private unnamed_addr constant [23 x i8] c"lossy %i is too large\0A\00", align 1
@.str.5 = private unnamed_addr constant [32 x i8] c"Unknown colorspace, index = %i\0A\00", align 1
@.str.6 = private unnamed_addr constant [32 x i8] c"lossy:%i, version:%i, mode: %i\0A\00", align 1

; Function Attrs: cold nounwind optsize uwtable
define internal i32 @decode_init(ptr noundef %0) #0 {
  %2 = alloca i32, align 4
  %3 = alloca ptr, align 8
  %4 = alloca ptr, align 8
  %5 = alloca i32, align 4
  %6 = alloca i32, align 4
  store ptr %0, ptr %3, align 8, !tbaa !4
  call void @llvm.lifetime.start.p0(i64 8, ptr %4) #9
  %7 = load ptr, ptr %3, align 8, !tbaa !4
  %8 = getelementptr inbounds nuw %struct.AVCodecContext, ptr %7, i32 0, i32 6
  %9 = load ptr, ptr %8, align 8, !tbaa !9
  store ptr %9, ptr %4, align 8, !tbaa !29
  call void @llvm.lifetime.start.p0(i64 4, ptr %5) #9
  %10 = load ptr, ptr %3, align 8, !tbaa !4
  %11 = load ptr, ptr %4, align 8, !tbaa !29
  %12 = getelementptr inbounds nuw %struct.LOCOContext, ptr %11, i32 0, i32 0
  store ptr %10, ptr %12, align 8, !tbaa !31
  %13 = load ptr, ptr %3, align 8, !tbaa !4
  %14 = getelementptr inbounds nuw %struct.AVCodecContext, ptr %13, i32 0, i32 13
  %15 = load i32, ptr %14, align 8, !tbaa !33
  %16 = icmp slt i32 %15, 12
  br i1 %16, label %17, label %22

17:                                               ; preds = %1
  %18 = load ptr, ptr %3, align 8, !tbaa !4
  %19 = load ptr, ptr %3, align 8, !tbaa !4
  %20 = getelementptr inbounds nuw %struct.AVCodecContext, ptr %19, i32 0, i32 13
  %21 = load i32, ptr %20, align 8, !tbaa !33
  call void (ptr, i32, ptr, ...) @av_log(ptr noundef %18, i32 noundef 16, ptr noundef @.str.2, i32 noundef %21)
  store i32 -1094995529, ptr %2, align 4
  store i32 1, ptr %6, align 4
  br label %103

22:                                               ; preds = %1
  %23 = load ptr, ptr %3, align 8, !tbaa !4
  %24 = getelementptr inbounds nuw %struct.AVCodecContext, ptr %23, i32 0, i32 12
  %25 = load ptr, ptr %24, align 8, !tbaa !34
  %26 = load i32, ptr %25, align 1, !tbaa !35
  store i32 %26, ptr %5, align 4, !tbaa !36
  %27 = load i32, ptr %5, align 4, !tbaa !36
  switch i32 %27, label %39 [
    i32 1, label %28
    i32 2, label %31
  ]

28:                                               ; preds = %22
  %29 = load ptr, ptr %4, align 8, !tbaa !29
  %30 = getelementptr inbounds nuw %struct.LOCOContext, ptr %29, i32 0, i32 1
  store i32 0, ptr %30, align 8, !tbaa !37
  br label %49

31:                                               ; preds = %22
  %32 = load ptr, ptr %3, align 8, !tbaa !4
  %33 = getelementptr inbounds nuw %struct.AVCodecContext, ptr %32, i32 0, i32 12
  %34 = load ptr, ptr %33, align 8, !tbaa !34
  %35 = getelementptr inbounds i8, ptr %34, i64 8
  %36 = load i32, ptr %35, align 1, !tbaa !35
  %37 = load ptr, ptr %4, align 8, !tbaa !29
  %38 = getelementptr inbounds nuw %struct.LOCOContext, ptr %37, i32 0, i32 1
  store i32 %36, ptr %38, align 8, !tbaa !37
  br label %49

39:                                               ; preds = %22
  %40 = load ptr, ptr %3, align 8, !tbaa !4
  %41 = getelementptr inbounds nuw %struct.AVCodecContext, ptr %40, i32 0, i32 12
  %42 = load ptr, ptr %41, align 8, !tbaa !34
  %43 = getelementptr inbounds i8, ptr %42, i64 8
  %44 = load i32, ptr %43, align 1, !tbaa !35
  %45 = load ptr, ptr %4, align 8, !tbaa !29
  %46 = getelementptr inbounds nuw %struct.LOCOContext, ptr %45, i32 0, i32 1
  store i32 %44, ptr %46, align 8, !tbaa !37
  %47 = load ptr, ptr %3, align 8, !tbaa !4
  %48 = load i32, ptr %5, align 4, !tbaa !36
  call void (ptr, ptr, ...) @avpriv_request_sample(ptr noundef %47, ptr noundef @.str.3, i32 noundef %48)
  br label %49

49:                                               ; preds = %39, %31, %28
  %50 = load ptr, ptr %4, align 8, !tbaa !29
  %51 = getelementptr inbounds nuw %struct.LOCOContext, ptr %50, i32 0, i32 1
  %52 = load i32, ptr %51, align 8, !tbaa !37
  %53 = icmp ugt i32 %52, 65536
  br i1 %53, label %54, label %59

54:                                               ; preds = %49
  %55 = load ptr, ptr %3, align 8, !tbaa !4
  %56 = load ptr, ptr %4, align 8, !tbaa !29
  %57 = getelementptr inbounds nuw %struct.LOCOContext, ptr %56, i32 0, i32 1
  %58 = load i32, ptr %57, align 8, !tbaa !37
  call void (ptr, i32, ptr, ...) @av_log(ptr noundef %55, i32 noundef 16, ptr noundef @.str.4, i32 noundef %58)
  store i32 -1094995529, ptr %2, align 4
  store i32 1, ptr %6, align 4
  br label %103

59:                                               ; preds = %49
  %60 = load ptr, ptr %3, align 8, !tbaa !4
  %61 = getelementptr inbounds nuw %struct.AVCodecContext, ptr %60, i32 0, i32 12
  %62 = load ptr, ptr %61, align 8, !tbaa !34
  %63 = getelementptr inbounds i8, ptr %62, i64 4
  %64 = load i32, ptr %63, align 1, !tbaa !35
  %65 = load ptr, ptr %4, align 8, !tbaa !29
  %66 = getelementptr inbounds nuw %struct.LOCOContext, ptr %65, i32 0, i32 2
  store i32 %64, ptr %66, align 4, !tbaa !38
  %67 = load ptr, ptr %4, align 8, !tbaa !29
  %68 = getelementptr inbounds nuw %struct.LOCOContext, ptr %67, i32 0, i32 2
  %69 = load i32, ptr %68, align 4, !tbaa !38
  switch i32 %69, label %82 [
    i32 -1, label %70
    i32 1, label %70
    i32 2, label %70
    i32 -2, label %73
    i32 3, label %73
    i32 -4, label %76
    i32 5, label %76
    i32 -3, label %79
    i32 4, label %79
  ]

70:                                               ; preds = %59, %59, %59
  %71 = load ptr, ptr %3, align 8, !tbaa !4
  %72 = getelementptr inbounds nuw %struct.AVCodecContext, ptr %71, i32 0, i32 23
  store i32 4, ptr %72, align 8, !tbaa !39
  br label %87

73:                                               ; preds = %59, %59
  %74 = load ptr, ptr %3, align 8, !tbaa !4
  %75 = getelementptr inbounds nuw %struct.AVCodecContext, ptr %74, i32 0, i32 23
  store i32 71, ptr %75, align 8, !tbaa !39
  br label %87

76:                                               ; preds = %59, %59
  %77 = load ptr, ptr %3, align 8, !tbaa !4
  %78 = getelementptr inbounds nuw %struct.AVCodecContext, ptr %77, i32 0, i32 23
  store i32 0, ptr %78, align 8, !tbaa !39
  br label %87

79:                                               ; preds = %59, %59
  %80 = load ptr, ptr %3, align 8, !tbaa !4
  %81 = getelementptr inbounds nuw %struct.AVCodecContext, ptr %80, i32 0, i32 23
  store i32 111, ptr %81, align 8, !tbaa !39
  br label %87

82:                                               ; preds = %59
  %83 = load ptr, ptr %3, align 8, !tbaa !4
  %84 = load ptr, ptr %4, align 8, !tbaa !29
  %85 = getelementptr inbounds nuw %struct.LOCOContext, ptr %84, i32 0, i32 2
  %86 = load i32, ptr %85, align 4, !tbaa !38
  call void (ptr, i32, ptr, ...) @av_log(ptr noundef %83, i32 noundef 32, ptr noundef @.str.5, i32 noundef %86)
  store i32 -1094995529, ptr %2, align 4
  store i32 1, ptr %6, align 4
  br label %103

87:                                               ; preds = %79, %76, %73, %70
  %88 = load ptr, ptr %3, align 8, !tbaa !4
  %89 = getelementptr inbounds nuw %struct.AVCodecContext, ptr %88, i32 0, i32 103
  %90 = load i32, ptr %89, align 4, !tbaa !40
  %91 = and i32 %90, 1
  %92 = icmp ne i32 %91, 0
  br i1 %92, label %93, label %102

93:                                               ; preds = %87
  %94 = load ptr, ptr %3, align 8, !tbaa !4
  %95 = load ptr, ptr %4, align 8, !tbaa !29
  %96 = getelementptr inbounds nuw %struct.LOCOContext, ptr %95, i32 0, i32 1
  %97 = load i32, ptr %96, align 8, !tbaa !37
  %98 = load i32, ptr %5, align 4, !tbaa !36
  %99 = load ptr, ptr %4, align 8, !tbaa !29
  %100 = getelementptr inbounds nuw %struct.LOCOContext, ptr %99, i32 0, i32 2
  %101 = load i32, ptr %100, align 4, !tbaa !38
  call void (ptr, i32, ptr, ...) @av_log(ptr noundef %94, i32 noundef 32, ptr noundef @.str.6, i32 noundef %97, i32 noundef %98, i32 noundef %101)
  br label %102

102:                                              ; preds = %93, %87
  store i32 0, ptr %2, align 4
  store i32 1, ptr %6, align 4
  br label %103

103:                                              ; preds = %102, %82, %54, %17
  call void @llvm.lifetime.end.p0(i64 4, ptr %5) #9
  call void @llvm.lifetime.end.p0(i64 8, ptr %4) #9
  %104 = load i32, ptr %2, align 4
  ret i32 %104
}