; Function Attrs: cold nounwind optsize uwtable
define internal range(i32 -1094995529, 1) i32 @decode_init(ptr noundef %0) #0 {
  %2 = getelementptr inbounds nuw i8, ptr %0, i64 32
  %3 = load ptr, ptr %2, align 8, !tbaa !4
  store ptr %0, ptr %3, align 8, !tbaa !27
  %4 = getelementptr inbounds nuw i8, ptr %0, i64 80
  %5 = load i32, ptr %4, align 8, !tbaa !30
  %6 = icmp slt i32 %5, 12
  br i1 %6, label %7, label %8

7:                                                ; preds = %1
  tail call void (ptr, i32, ptr, ...) @av_log(ptr noundef nonnull %0, i32 noundef 16, ptr noundef nonnull @.str.2, i32 noundef %5) #10
  br label %39

8:                                                ; preds = %1
  %9 = getelementptr inbounds nuw i8, ptr %0, i64 72
  %10 = load ptr, ptr %9, align 8, !tbaa !31
  %11 = load i32, ptr %10, align 1, !tbaa !32
  switch i32 %11, label %17 [
    i32 1, label %.thread
    i32 2, label %13
  ]

.thread:                                          ; preds = %8
  %12 = getelementptr inbounds nuw i8, ptr %3, i64 8
  store i32 0, ptr %12, align 8, !tbaa !33
  br label %25

13:                                               ; preds = %8
  %14 = getelementptr inbounds nuw i8, ptr %10, i64 8
  %15 = load i32, ptr %14, align 1, !tbaa !32
  %16 = getelementptr inbounds nuw i8, ptr %3, i64 8
  store i32 %15, ptr %16, align 8, !tbaa !33
  br label %21

17:                                               ; preds = %8
  %18 = getelementptr inbounds nuw i8, ptr %10, i64 8
  %19 = load i32, ptr %18, align 1, !tbaa !32
  %20 = getelementptr inbounds nuw i8, ptr %3, i64 8
  store i32 %19, ptr %20, align 8, !tbaa !33
  tail call void (ptr, ptr, ...) @avpriv_request_sample(ptr noundef nonnull %0, ptr noundef nonnull @.str.3, i32 noundef %11) #10
  %.pre = load i32, ptr %20, align 8, !tbaa !33
  br label %21

21:                                               ; preds = %17, %13
  %22 = phi i32 [ %.pre, %17 ], [ %15, %13 ]
  %23 = icmp ugt i32 %22, 65536
  br i1 %23, label %24, label %25

24:                                               ; preds = %21
  tail call void (ptr, i32, ptr, ...) @av_log(ptr noundef nonnull %0, i32 noundef 16, ptr noundef nonnull @.str.4, i32 noundef %22) #10
  br label %39

25:                                               ; preds = %.thread, %21
  %26 = phi i32 [ 0, %.thread ], [ %22, %21 ]
  %27 = load ptr, ptr %9, align 8, !tbaa !31
  %28 = getelementptr inbounds nuw i8, ptr %27, i64 4
  %29 = load i32, ptr %28, align 1, !tbaa !32
  %30 = getelementptr inbounds nuw i8, ptr %3, i64 12
  store i32 %29, ptr %30, align 4, !tbaa !34
  %switch.tableidx = add i32 %29, 4
  %31 = icmp ult i32 %switch.tableidx, 10
  %switch.maskindex = trunc i32 %switch.tableidx to i16
  %switch.shifted = lshr i16 1007, %switch.maskindex
  %switch.lobit = trunc i16 %switch.shifted to i1
  %or.cond = select i1 %31, i1 %switch.lobit, i1 false
  br i1 %or.cond, label %switch.lookup, label %32

32:                                               ; preds = %25
  tail call void (ptr, i32, ptr, ...) @av_log(ptr noundef nonnull %0, i32 noundef 32, ptr noundef nonnull @.str.5, i32 noundef %29) #10
  br label %39

switch.lookup:                                    ; preds = %25
  %33 = zext nneg i32 %switch.tableidx to i64
  %switch.gep = getelementptr inbounds nuw [10 x i32], ptr @switch.table.decode_init, i64 0, i64 %33
  %switch.load = load i32, ptr %switch.gep, align 4
  %34 = getelementptr inbounds nuw i8, ptr %0, i64 136
  store i32 %switch.load, ptr %34, align 8, !tbaa !35
  %35 = getelementptr inbounds nuw i8, ptr %0, i64 524
  %36 = load i32, ptr %35, align 4, !tbaa !36
  %37 = and i32 %36, 1
  %.not = icmp eq i32 %37, 0
  br i1 %.not, label %39, label %38

38:                                               ; preds = %switch.lookup
  tail call void (ptr, i32, ptr, ...) @av_log(ptr noundef nonnull %0, i32 noundef 32, ptr noundef nonnull @.str.6, i32 noundef %26, i32 noundef %11, i32 noundef %29) #10
  br label %39

39:                                               ; preds = %switch.lookup, %38, %32, %24, %7
  %.0 = phi i32 [ -1094995529, %7 ], [ -1094995529, %24 ], [ -1094995529, %32 ], [ 0, %38 ], [ 0, %switch.lookup ]
  ret i32 %.0
}